; Function Attrs: nounwind uwtable
define ptr @Gia_ManDeriveResub(ptr noundef readonly captures(none) %0, i32 noundef %1) local_unnamed_addr #2 {
  %3 = icmp slt i32 %1, 7
  %4 = add nsw i32 %1, -6
  %5 = shl nuw i32 1, %4
  %6 = select i1 %3, i32 1, i32 %5
  %7 = tail call fastcc ptr @Vec_WrdStartTruthTables(i32 noundef %1)
  %8 = add nsw i32 %1, 2
  %9 = tail call noalias dereferenceable_or_null(16) ptr @malloc(i64 noundef 16) #13
  %10 = add nsw i32 %1, 1
  %or.cond.i = icmp ult i32 %10, 7
  %spec.store.select.i = select i1 %or.cond.i, i32 8, i32 %8
  %11 = getelementptr inbounds nuw i8, ptr %9, i64 4
  store i32 %spec.store.select.i, ptr %9, align 8
  %.not.i = icmp eq i32 %spec.store.select.i, 0
  br i1 %.not.i, label %Vec_PtrPush.exit.thread, label %Vec_PtrPush.exit

Vec_PtrPush.exit.thread:                          ; preds = %2
  %12 = getelementptr inbounds nuw i8, ptr %9, i64 8
  %13 = getelementptr i8, ptr %0, i64 8
  %.val2441 = load ptr, ptr %13, align 8
  %14 = tail call noalias dereferenceable_or_null(128) ptr @malloc(i64 noundef 128) #13
  store ptr %14, ptr %12, align 8
  store i32 16, ptr %9, align 8
  store ptr %.val2441, ptr %14, align 8
  %15 = sext i32 %6 to i64
  %16 = getelementptr inbounds i64, ptr %.val2441, i64 %15
  br label %Vec_PtrPush.exit31

Vec_PtrPush.exit:                                 ; preds = %2
  %17 = sext i32 %spec.store.select.i to i64
  %18 = shl nsw i64 %17, 3
  %19 = tail call noalias ptr @malloc(i64 noundef %18) #13
  %20 = getelementptr inbounds nuw i8, ptr %9, i64 8
  store ptr %19, ptr %20, align 8
  %21 = getelementptr i8, ptr %0, i64 8
  %.val24 = load ptr, ptr %21, align 8
  %22 = icmp eq i32 %spec.store.select.i, 1
  store ptr %.val24, ptr %19, align 8
  %23 = sext i32 %6 to i64
  %24 = getelementptr inbounds i64, ptr %.val24, i64 %23
  br i1 %22, label %Vec_PtrGrow.exit.i30, label %Vec_PtrPush.exit31

Vec_PtrGrow.exit.i30:                             ; preds = %Vec_PtrPush.exit
  %25 = tail call dereferenceable_or_null(128) ptr @realloc(ptr noundef nonnull %19, i64 noundef 128) #15
  store ptr %25, ptr %20, align 8
  store i32 16, ptr %9, align 8
  br label %Vec_PtrPush.exit31

Vec_PtrPush.exit31:                               ; preds = %Vec_PtrPush.exit, %Vec_PtrPush.exit.thread, %Vec_PtrGrow.exit.i30
  %26 = phi ptr [ %24, %Vec_PtrGrow.exit.i30 ], [ %16, %Vec_PtrPush.exit.thread ], [ %24, %Vec_PtrPush.exit ]
  %27 = phi ptr [ %20, %Vec_PtrGrow.exit.i30 ], [ %12, %Vec_PtrPush.exit.thread ], [ %20, %Vec_PtrPush.exit ]
  %28 = phi ptr [ %25, %Vec_PtrGrow.exit.i30 ], [ %14, %Vec_PtrPush.exit.thread ], [ %19, %Vec_PtrPush.exit ]
  store i32 2, ptr %11, align 4
  %29 = getelementptr inbounds nuw i8, ptr %28, i64 8
  store ptr %26, ptr %29, align 8
  %30 = icmp sgt i32 %1, 0
  br i1 %30, label %.lr.ph, label %._crit_edge

.lr.ph:                                           ; preds = %Vec_PtrPush.exit31
  %31 = select i1 %3, i32 0, i32 %4
  %32 = getelementptr i8, ptr %7, i64 8
  br label %33

33:                                               ; preds = %.lr.ph, %Vec_PtrPush.exit38
  %.044 = phi i32 [ 0, %.lr.ph ], [ %64, %Vec_PtrPush.exit38 ]
  %34 = shl i32 %.044, %31
  %.val22 = load ptr, ptr %32, align 8
  %35 = sext i32 %34 to i64
  %36 = getelementptr inbounds i64, ptr %.val22, i64 %35
  %37 = load i32, ptr %11, align 4
  %38 = load i32, ptr %9, align 8
  %39 = icmp eq i32 %37, %38
  br i1 %39, label %40, label %.Vec_PtrGrow.exit11_crit_edge.i32

.Vec_PtrGrow.exit11_crit_edge.i32:                ; preds = %33
  %.pre.i34 = load ptr, ptr %27, align 8
  br label %Vec_PtrPush.exit38

40:                                               ; preds = %33
  %41 = icmp slt i32 %37, 16
  br i1 %41, label %42, label %49

42:                                               ; preds = %40
  %43 = load ptr, ptr %27, align 8
  %.not9.i.i36 = icmp eq ptr %43, null
  br i1 %.not9.i.i36, label %46, label %44

44:                                               ; preds = %42
  %45 = tail call dereferenceable_or_null(128) ptr @realloc(ptr noundef nonnull %43, i64 noundef 128) #15
  br label %Vec_PtrGrow.exit.i37

46:                                               ; preds = %42
  %47 = tail call noalias dereferenceable_or_null(128) ptr @malloc(i64 noundef 128) #13
  br label %Vec_PtrGrow.exit.i37

Vec_PtrGrow.exit.i37:                             ; preds = %46, %44
  %48 = phi ptr [ %45, %44 ], [ %47, %46 ]
  store ptr %48, ptr %27, align 8
  store i32 16, ptr %9, align 8
  br label %Vec_PtrPush.exit38

49:                                               ; preds = %40
  %50 = shl nuw nsw i32 %37, 1
  %51 = load ptr, ptr %27, align 8
  %.not9.i10.i35 = icmp eq ptr %51, null
  %52 = zext nneg i32 %50 to i64
  %53 = shl nuw nsw i64 %52, 3
  br i1 %.not9.i10.i35, label %56, label %54

54:                                               ; preds = %49
  %55 = tail call ptr @realloc(ptr noundef nonnull %51, i64 noundef %53) #15
  br label %58

56:                                               ; preds = %49
  %57 = tail call noalias ptr @malloc(i64 noundef %53) #13
  br label %58

58:                                               ; preds = %56, %54
  %59 = phi ptr [ %55, %54 ], [ %57, %56 ]
  store ptr %59, ptr %27, align 8
  store i32 %50, ptr %9, align 8
  br label %Vec_PtrPush.exit38

Vec_PtrPush.exit38:                               ; preds = %.Vec_PtrGrow.exit11_crit_edge.i32, %Vec_PtrGrow.exit.i37, %58
  %60 = phi ptr [ %.pre.i34, %.Vec_PtrGrow.exit11_crit_edge.i32 ], [ %59, %58 ], [ %48, %Vec_PtrGrow.exit.i37 ]
  %61 = add nsw i32 %37, 1
  store i32 %61, ptr %11, align 4
  %62 = sext i32 %37 to i64
  %63 = getelementptr inbounds ptr, ptr %60, i64 %62
  store ptr %36, ptr %63, align 8
  %64 = add nuw nsw i32 %.044, 1
  %exitcond.not = icmp eq i32 %64, %1
  br i1 %exitcond.not, label %._crit_edge, label %33, !llvm.loop !15

._crit_edge:                                      ; preds = %Vec_PtrPush.exit38, %Vec_PtrPush.exit31
  %65 = tail call ptr @Gia_ManResubOne(ptr noundef nonnull %9, i32 noundef %6, i32 noundef 30, i32 noundef 100, i32 noundef 0, i32 noundef 0, i32 noundef 0, i32 noundef 0, ptr noundef null, i32 noundef 0) #14
  %66 = load ptr, ptr %27, align 8
  %.not.i39 = icmp eq ptr %66, null
  br i1 %.not.i39, label %Vec_PtrFree.exit, label %67

67:                                               ; preds = %._crit_edge
  tail call void @free(ptr noundef nonnull %66) #14
  br label %Vec_PtrFree.exit

Vec_PtrFree.exit:                                 ; preds = %._crit_edge, %67
  tail call void @free(ptr noundef nonnull %9) #14
  %68 = getelementptr inbounds nuw i8, ptr %7, i64 8
  %69 = load ptr, ptr %68, align 8
  %.not.i40 = icmp eq ptr %69, null
  br i1 %.not.i40, label %Vec_WrdFree.exit, label %70

70:                                               ; preds = %Vec_PtrFree.exit
  tail call void @free(ptr noundef nonnull %69) #14
  br label %Vec_WrdFree.exit

Vec_WrdFree.exit:                                 ; preds = %Vec_PtrFree.exit, %70
  tail call void @free(ptr noundef nonnull %7) #14
  ret ptr %65
}